; Function Attrs: nounwind uwtable
define internal void @dtgtk_thumbnail_btn_class_intern_init(ptr noundef %0) #0 {
  %2 = tail call ptr @g_type_class_peek_parent(ptr noundef %0) #7
  store ptr %2, ptr @dtgtk_thumbnail_btn_parent_class, align 8, !tbaa !28
  %3 = load i32, ptr @GtkDarktableThumbnailBtn_private_offset, align 4, !tbaa !29
  %.not = icmp eq i32 %3, 0
  br i1 %.not, label %5, label %4

4:                                                ; preds = %1
  tail call void @g_type_class_adjust_private_offset(ptr noundef %0, ptr noundef nonnull @GtkDarktableThumbnailBtn_private_offset) #7
  br label %5

5:                                                ; preds = %4, %1
  %6 = getelementptr inbounds nuw i8, ptr %0, i64 288
  store ptr @_thumbnail_btn_draw, ptr %6, align 8, !tbaa !30
  %7 = getelementptr inbounds nuw i8, ptr %0, i64 448
  store ptr @_thumbnail_btn_enter_leave_notify_callback, ptr %7, align 8, !tbaa !35
  %8 = getelementptr inbounds nuw i8, ptr %0, i64 456
  store ptr @_thumbnail_btn_enter_leave_notify_callback, ptr %8, align 8, !tbaa !36
  ret void
}